; Function Attrs: nounwind uwtable
define ptr @l_Array_foldlMUnsafe_fold___at_Lean_Compiler_LCNF_UnreachableBranches_elimDead_go___spec__5___boxed(ptr noundef %0, ptr noundef %1, ptr noundef %2, ptr noundef %3, ptr noundef %4, ptr noundef %5, ptr noundef %6, ptr noundef %7, ptr noundef %8, ptr noundef %9, ptr noundef %10, ptr noundef %11, ptr noundef %12) local_unnamed_addr #1 {
  %14 = getelementptr i8, ptr %1, i64 8
  %.val45 = load i64, ptr %14, align 8, !tbaa !9
  %15 = ptrtoint ptr %1 to i64
  %16 = and i64 %15, 1
  %.not = icmp eq i64 %16, 0
  br i1 %.not, label %17, label %lean_dec.exit30

17:                                               ; preds = %13
  %18 = load i32, ptr %1, align 4, !tbaa !4
  %19 = icmp sgt i32 %18, 1
  br i1 %19, label %20, label %22, !prof !13

20:                                               ; preds = %17
  %21 = add nsw i32 %18, -1
  store i32 %21, ptr %1, align 4, !tbaa !4
  br label %lean_dec.exit30

22:                                               ; preds = %17
  %.not.i = icmp eq i32 %18, 0
  br i1 %.not.i, label %lean_dec.exit30, label %23

23:                                               ; preds = %22
  tail call void @lean_dec_ref_cold(ptr noundef nonnull %1) #8
  br label %lean_dec.exit30

lean_dec.exit30:                                  ; preds = %23, %22, %20, %13
  %24 = getelementptr i8, ptr %2, i64 8
  %.val46 = load i64, ptr %24, align 8, !tbaa !9
  %25 = ptrtoint ptr %2 to i64
  %26 = and i64 %25, 1
  %.not47 = icmp eq i64 %26, 0
  br i1 %.not47, label %27, label %lean_dec.exit29

27:                                               ; preds = %lean_dec.exit30
  %28 = load i32, ptr %2, align 4, !tbaa !4
  %29 = icmp sgt i32 %28, 1
  br i1 %29, label %30, label %32, !prof !13

30:                                               ; preds = %27
  %31 = add nsw i32 %28, -1
  store i32 %31, ptr %2, align 4, !tbaa !4
  br label %lean_dec.exit29

32:                                               ; preds = %27
  %.not.i31 = icmp eq i32 %28, 0
  br i1 %.not.i31, label %lean_dec.exit29, label %33

33:                                               ; preds = %32
  tail call void @lean_dec_ref_cold(ptr noundef nonnull %2) #8
  br label %lean_dec.exit29

lean_dec.exit29:                                  ; preds = %33, %32, %30, %lean_dec.exit30
  %34 = getelementptr i8, ptr %3, i64 8
  %.val44 = load i64, ptr %34, align 8, !tbaa !9
  %35 = ptrtoint ptr %3 to i64
  %36 = and i64 %35, 1
  %.not48 = icmp eq i64 %36, 0
  br i1 %.not48, label %37, label %lean_dec.exit28

37:                                               ; preds = %lean_dec.exit29
  %38 = load i32, ptr %3, align 4, !tbaa !4
  %39 = icmp sgt i32 %38, 1
  br i1 %39, label %40, label %42, !prof !13

40:                                               ; preds = %37
  %41 = add nsw i32 %38, -1
  store i32 %41, ptr %3, align 4, !tbaa !4
  br label %lean_dec.exit28

42:                                               ; preds = %37
  %.not.i33 = icmp eq i32 %38, 0
  br i1 %.not.i33, label %lean_dec.exit28, label %43

43:                                               ; preds = %42
  tail call void @lean_dec_ref_cold(ptr noundef nonnull %3) #8
  br label %lean_dec.exit28

lean_dec.exit28:                                  ; preds = %43, %42, %40, %lean_dec.exit29
  %44 = getelementptr i8, ptr %5, i64 8
  %.val43 = load i64, ptr %44, align 8, !tbaa !9
  %45 = ptrtoint ptr %5 to i64
  %46 = and i64 %45, 1
  %.not49 = icmp eq i64 %46, 0
  br i1 %.not49, label %47, label %lean_dec.exit27

47:                                               ; preds = %lean_dec.exit28
  %48 = load i32, ptr %5, align 4, !tbaa !4
  %49 = icmp sgt i32 %48, 1
  br i1 %49, label %50, label %52, !prof !13

50:                                               ; preds = %47
  %51 = add nsw i32 %48, -1
  store i32 %51, ptr %5, align 4, !tbaa !4
  br label %lean_dec.exit27

52:                                               ; preds = %47
  %.not.i35 = icmp eq i32 %48, 0
  br i1 %.not.i35, label %lean_dec.exit27, label %53

53:                                               ; preds = %52
  tail call void @lean_dec_ref_cold(ptr noundef nonnull %5) #8
  br label %lean_dec.exit27

lean_dec.exit27:                                  ; preds = %53, %52, %50, %lean_dec.exit28
  %54 = getelementptr i8, ptr %6, i64 8
  %.val = load i64, ptr %54, align 8, !tbaa !9
  %55 = ptrtoint ptr %6 to i64
  %56 = and i64 %55, 1
  %.not50 = icmp eq i64 %56, 0
  br i1 %.not50, label %57, label %lean_dec.exit26

57:                                               ; preds = %lean_dec.exit27
  %58 = load i32, ptr %6, align 4, !tbaa !4
  %59 = icmp sgt i32 %58, 1
  br i1 %59, label %60, label %62, !prof !13

60:                                               ; preds = %57
  %61 = add nsw i32 %58, -1
  store i32 %61, ptr %6, align 4, !tbaa !4
  br label %lean_dec.exit26

62:                                               ; preds = %57
  %.not.i37 = icmp eq i32 %58, 0
  br i1 %.not.i37, label %lean_dec.exit26, label %63

63:                                               ; preds = %62
  tail call void @lean_dec_ref_cold(ptr noundef nonnull %6) #8
  br label %lean_dec.exit26

lean_dec.exit26:                                  ; preds = %63, %62, %60, %lean_dec.exit27
  %64 = tail call ptr @l_Array_foldlMUnsafe_fold___at_Lean_Compiler_LCNF_UnreachableBranches_elimDead_go___spec__5(ptr noundef %0, i64 noundef %.val45, i64 noundef %.val46, i64 noundef %.val44, ptr noundef %4, i64 noundef %.val43, i64 noundef %.val, ptr noundef %7, ptr noundef %8, ptr noundef %9, ptr noundef %10, ptr noundef %11, ptr noundef %12)
  %65 = ptrtoint ptr %4 to i64
  %66 = and i64 %65, 1
  %.not51 = icmp eq i64 %66, 0
  br i1 %.not51, label %67, label %lean_dec.exit25

67:                                               ; preds = %lean_dec.exit26
  %68 = load i32, ptr %4, align 4, !tbaa !4
  %69 = icmp sgt i32 %68, 1
  br i1 %69, label %70, label %72, !prof !13

70:                                               ; preds = %67
  %71 = add nsw i32 %68, -1
  store i32 %71, ptr %4, align 4, !tbaa !4
  br label %lean_dec.exit25

72:                                               ; preds = %67
  %.not.i39 = icmp eq i32 %68, 0
  br i1 %.not.i39, label %lean_dec.exit25, label %73

73:                                               ; preds = %72
  tail call void @lean_dec_ref_cold(ptr noundef nonnull %4) #8
  br label %lean_dec.exit25

lean_dec.exit25:                                  ; preds = %73, %72, %70, %lean_dec.exit26
  %74 = ptrtoint ptr %0 to i64
  %75 = and i64 %74, 1
  %.not52 = icmp eq i64 %75, 0
  br i1 %.not52, label %76, label %lean_dec.exit

76:                                               ; preds = %lean_dec.exit25
  %77 = load i32, ptr %0, align 4, !tbaa !4
  %78 = icmp sgt i32 %77, 1
  br i1 %78, label %79, label %81, !prof !13

79:                                               ; preds = %76
  %80 = add nsw i32 %77, -1
  store i32 %80, ptr %0, align 4, !tbaa !4
  br label %lean_dec.exit

81:                                               ; preds = %76
  %.not.i41 = icmp eq i32 %77, 0
  br i1 %.not.i41, label %lean_dec.exit, label %82

82:                                               ; preds = %81
  tail call void @lean_dec_ref_cold(ptr noundef nonnull %0) #8
  br label %lean_dec.exit

lean_dec.exit:                                    ; preds = %82, %81, %79, %lean_dec.exit25
  ret ptr %64
}